target datalayout = "e-m:e-p270:32:32-p271:32:32-p272:64:64-i64:64-i128:128-f80:128-n8:16:32:64-S128"
target triple = "x86_64-pc-linux-gnu"

%"class.llvm::SmallVectorBase" = type { ptr, i32, i32 }
%"class.llvm::VPDef" = type { ptr, i8, [7 x i8], %"class.llvm::TinyPtrVector" }
%"class.llvm::TinyPtrVector" = type { %"class.llvm::PointerUnion" }
%"class.llvm::PointerUnion" = type { %"class.llvm::pointer_union_detail::PointerUnionMembers" }
%"class.llvm::pointer_union_detail::PointerUnionMembers" = type { %"class.llvm::pointer_union_detail::PointerUnionMembers.0" }
%"class.llvm::pointer_union_detail::PointerUnionMembers.0" = type { %"class.llvm::pointer_union_detail::PointerUnionMembers.1" }
%"class.llvm::pointer_union_detail::PointerUnionMembers.1" = type { %"class.llvm::PointerIntPair" }
%"class.llvm::PointerIntPair" = type { %"struct.llvm::detail::PunnedPointer" }
%"struct.llvm::detail::PunnedPointer" = type { [8 x i8] }
%"class.llvm::VPRecipeBase" = type { %"class.llvm::VPDef", %"class.llvm::ilist_node_with_parent", %"class.llvm::VPUser.base", ptr, %"class.llvm::DebugLoc" }
%"class.llvm::ilist_node_with_parent" = type { %"class.llvm::ilist_node" }
%"class.llvm::ilist_node" = type { %"class.llvm::ilist_node_impl" }
%"class.llvm::ilist_node_impl" = type { %"class.llvm::ilist_node_base" }
%"class.llvm::ilist_node_base" = type { %"class.llvm::ilist_detail::node_base_prevnext" }
%"class.llvm::ilist_detail::node_base_prevnext" = type { ptr, ptr }
%"class.llvm::VPUser.base" = type <{ ptr, %"class.llvm::SmallVector", i32 }>
%"class.llvm::SmallVector" = type { %"class.llvm::SmallVectorImpl", %"struct.llvm::SmallVectorStorage" }
%"class.llvm::SmallVectorImpl" = type { %"class.llvm::SmallVectorTemplateBase" }
%"class.llvm::SmallVectorTemplateBase" = type { %"class.llvm::SmallVectorTemplateCommon" }
%"class.llvm::SmallVectorTemplateCommon" = type { %"class.llvm::SmallVectorBase" }
%"struct.llvm::SmallVectorStorage" = type { [16 x i8] }
%"class.llvm::DebugLoc" = type { %"class.llvm::TypedTrackingMDRef" }
%"class.llvm::TypedTrackingMDRef" = type { %"class.llvm::TrackingMDRef" }
%"class.llvm::TrackingMDRef" = type { ptr }
%"class.llvm::VPValue" = type { ptr, i8, %"class.llvm::SmallVector.2", ptr, ptr }
%"class.llvm::SmallVector.2" = type { %"class.llvm::SmallVectorImpl.3", %"struct.llvm::SmallVectorStorage.6" }
%"class.llvm::SmallVectorImpl.3" = type { %"class.llvm::SmallVectorTemplateBase.4" }
%"class.llvm::SmallVectorTemplateBase.4" = type { %"class.llvm::SmallVectorTemplateCommon.5" }
%"class.llvm::SmallVectorTemplateCommon.5" = type { %"class.llvm::SmallVectorBase" }
%"struct.llvm::SmallVectorStorage.6" = type { [8 x i8] }
%"class.llvm::VPInstruction" = type { %"class.llvm::VPRecipeWithIRFlags", i8, %"class.std::__cxx11::basic_string" }
%"class.llvm::VPRecipeWithIRFlags" = type { %"class.llvm::VPSingleDefRecipe", i8, %union.anon }
%"class.llvm::VPSingleDefRecipe" = type { %"class.llvm::VPRecipeBase", %"class.llvm::VPValue" }
%union.anon = type { i32 }
%"class.std::__cxx11::basic_string" = type { %"struct.std::__cxx11::basic_string<char>::_Alloc_hider", i64, %union.anon.21 }
%"struct.std::__cxx11::basic_string<char>::_Alloc_hider" = type { ptr }
%union.anon.21 = type { i64, [8 x i8] }

; Function Attrs: mustprogress nounwind uwtable
define dso_local noundef zeroext i1 @_ZNK4llvm13VPInstruction16isVectorToScalarEv(ptr noundef nonnull align 8 dereferenceable(208) %0) #0 align 2 {
  %2 = alloca ptr, align 8
  store ptr %0, ptr %2, align 8
  %3 = load ptr, ptr %2, align 8
  %4 = call noundef i32 @_ZNK4llvm13VPInstruction9getOpcodeEv(ptr noundef nonnull align 8 dereferenceable(208) %3)
  %5 = icmp eq i32 %4, 81
  br i1 %5, label %9, label %6

6:                                                ; preds = %1
  %7 = call noundef i32 @_ZNK4llvm13VPInstruction9getOpcodeEv(ptr noundef nonnull align 8 dereferenceable(208) %3)
  %8 = icmp eq i32 %7, 80
  br label %9

9:                                                ; preds = %6, %1
  %10 = phi i1 [ true, %1 ], [ %8, %6 ]
  ret i1 %10
}

; Function Attrs: mustprogress nounwind uwtable
define dso_local noundef zeroext i1 @_ZNK4llvm13VPInstruction14isSingleScalarEv(ptr noundef nonnull align 8 dereferenceable(208) %0) #0 align 2 {
  %2 = alloca ptr, align 8
  store ptr %0, ptr %2, align 8
  %3 = load ptr, ptr %2, align 8
  %4 = call noundef i32 @_ZNK4llvm13VPInstruction9getOpcodeEv(ptr noundef nonnull align 8 dereferenceable(208) %3)
  %5 = icmp eq i32 %4, 75
  ret i1 %5
}

; Function Attrs: mustprogress nounwind uwtable
define linkonce_odr hidden noundef zeroext i1 @_ZN4llvm11Instruction10isBinaryOpEj(i32 noundef %0) #0 comdat align 2 {
  %2 = alloca i32, align 4
  store i32 %0, ptr %2, align 4
  %3 = load i32, ptr %2, align 4
  %4 = icmp uge i32 %3, 13
  br i1 %4, label %5, label %8

5:                                                ; preds = %1
  %6 = load i32, ptr %2, align 4
  %7 = icmp ult i32 %6, 31
  br label %8

8:                                                ; preds = %5, %1
  %9 = phi i1 [ false, %1 ], [ %7, %5 ]
  ret i1 %9
}

; Function Attrs: mustprogress nounwind uwtable
define linkonce_odr hidden noundef i32 @_ZNK4llvm13VPInstruction9getOpcodeEv(ptr noundef nonnull align 8 dereferenceable(208) %0) #0 comdat align 2 {
  %2 = alloca ptr, align 8
  store ptr %0, ptr %2, align 8
  %3 = load ptr, ptr %2, align 8
  %4 = getelementptr inbounds nuw %"class.llvm::VPInstruction", ptr %3, i32 0, i32 1
  %5 = load i8, ptr %4, align 8
  %6 = zext i8 %5 to i32
  ret i32 %6
}

; Function Attrs: mustprogress nounwind uwtable
define dso_local noundef zeroext i1 @_ZNK4llvm13VPInstruction29canGenerateScalarForFirstLaneEv(ptr noundef nonnull align 8 dereferenceable(208) %0) #0 align 2 {
  %2 = alloca i1, align 1
  %3 = alloca ptr, align 8
  store ptr %0, ptr %3, align 8
  %4 = load ptr, ptr %3, align 8
  %5 = call noundef i32 @_ZNK4llvm13VPInstruction9getOpcodeEv(ptr noundef nonnull align 8 dereferenceable(208) %4)
  %6 = call noundef zeroext i1 @_ZN4llvm11Instruction10isBinaryOpEj(i32 noundef %5)
  br i1 %6, label %7, label %8

7:                                                ; preds = %1
  store i1 true, ptr %2, align 1
  br label %19

8:                                                ; preds = %1
  %9 = call noundef zeroext i1 @_ZNK4llvm13VPInstruction14isSingleScalarEv(ptr noundef nonnull align 8 dereferenceable(208) %4)
  br i1 %9, label %12, label %10

10:                                               ; preds = %8
  %11 = call noundef zeroext i1 @_ZNK4llvm13VPInstruction16isVectorToScalarEv(ptr noundef nonnull align 8 dereferenceable(208) %4)
  br i1 %11, label %12, label %13

12:                                               ; preds = %10, %8
  store i1 true, ptr %2, align 1
  br label %19

13:                                               ; preds = %10
  %14 = getelementptr inbounds nuw %"class.llvm::VPInstruction", ptr %4, i32 0, i32 1
  %15 = load i8, ptr %14, align 8
  %16 = zext i8 %15 to i32
  switch i32 %16, label %18 [
    i32 53, label %17
    i32 79, label %17
    i32 78, label %17
    i32 76, label %17
    i32 77, label %17
    i32 83, label %17
    i32 74, label %17
  ]

17:                                               ; preds = %13, %13, %13, %13, %13, %13, %13
  store i1 true, ptr %2, align 1
  br label %19

18:                                               ; preds = %13
  store i1 false, ptr %2, align 1
  br label %19

19:                                               ; preds = %18, %17, %12, %7
  %20 = load i1, ptr %2, align 1
  ret i1 %20
}