; Function Attrs: mustprogress nofree norecurse nosync nounwind willreturn memory(argmem: read) uwtable
define dso_local noundef zeroext i1 @_ZNK4llvm13VPInstruction29canGenerateScalarForFirstLaneEv(ptr nocapture noundef nonnull readonly align 8 dereferenceable(208) %0) local_unnamed_addr #6 align 2 {
  %2 = getelementptr inbounds nuw i8, ptr %0, i64 168
  %3 = load i8, ptr %2, align 8
  %.fr = freeze i8 %3
  %4 = zext i8 %.fr to i32
  %5 = add nsw i32 %4, -13
  %6 = icmp ult i32 %5, 18
  br i1 %6, label %8, label %switch.early.test

switch.early.test:                                ; preds = %1
  %switch.tableidx = add i8 %.fr, -53
  %7 = icmp ult i8 %switch.tableidx, 31
  br i1 %7, label %switch.lookup, label %8

switch.lookup:                                    ; preds = %switch.early.test
  %switch.cast = zext nneg i8 %switch.tableidx to i31
  %switch.downshift = lshr i31 -538968063, %switch.cast
  %switch.masked = trunc i31 %switch.downshift to i1
  br label %8

8:                                                ; preds = %switch.early.test, %switch.lookup, %1
  %.0 = phi i1 [ true, %1 ], [ %switch.masked, %switch.lookup ], [ false, %switch.early.test ]
  ret i1 %.0
}